; Function Attrs: mustprogress uwtable
define void @_ZN3vcg9Trackball4UndoEv(ptr nocapture noundef nonnull align 8 dereferenceable(597) %0) local_unnamed_addr #6 align 2 {
  %2 = getelementptr inbounds i8, ptr %0, i64 432
  tail call void @llvm.memcpy.p0.p0.i64(ptr noundef nonnull align 8 dereferenceable(32) %0, ptr noundef nonnull align 8 dereferenceable(32) %2, i64 32, i1 false)
  %3 = getelementptr inbounds i8, ptr %0, i64 328
  %4 = load ptr, ptr %3, align 8
  %.not = icmp eq ptr %4, null
  br i1 %.not, label %9, label %5

5:                                                ; preds = %1
  %6 = load ptr, ptr %4, align 8
  %7 = getelementptr inbounds i8, ptr %6, i64 72
  %8 = load ptr, ptr %7, align 8
  tail call void %8(ptr noundef nonnull align 8 dereferenceable(8) %4)
  br label %9

9:                                                ; preds = %5, %1
  ret void
}